; ModuleID = 'bench/opencv/original/gstreamerenv.cpp.ll'
source_filename = "bench/opencv/original/gstreamerenv.cpp.ll"
target datalayout = "e-m:e-p270:32:32-p271:32:32-p272:64:64-i64:64-i128:128-f80:128-n8:16:32:64-S128"
target triple = "x86_64-pc-linux-gnu"

%"class.std::ios_base::Init" = type { i8 }
%"class.std::__cxx11::basic_string" = type { %"struct.std::__cxx11::basic_string<char>::_Alloc_hider", i64, %union.anon }
%"struct.std::__cxx11::basic_string<char>::_Alloc_hider" = type { ptr }
%union.anon = type { i64, [8 x i8] }
%"class.std::allocator" = type { i8 }

@_ZStL8__ioinit = internal global %"class.std::ios_base::Init" zeroinitializer, align 1
@__dso_handle = external hidden global i8
@.str = private unnamed_addr constant [33 x i8] c"Built without GStreamer support!\00", align 1
@__func__._ZN2cv4gapi3wip3gst12GStreamerEnv4initEv = private unnamed_addr constant [5 x i8] c"init\00", align 1
@.str.1 = private unnamed_addr constant [145 x i8] c"generated/home/dtcxzyw/WorkSpace/Projects/compilers/llvm-opt-benchmark/bench/opencv/opencv/modules/gapi/src/streaming/gstreamer/gstreamerenv.cpp\00", align 1
@__func__._ZN2cv4gapi3wip3gst12GStreamerEnvC2Ev = private unnamed_addr constant [13 x i8] c"GStreamerEnv\00", align 1
@llvm.global_ctors = appending global [1 x { i32, ptr, ptr }] [{ i32, ptr, ptr } { i32 65535, ptr @_GLOBAL__sub_I_gstreamerenv.cpp, ptr null }]

@_ZN2cv4gapi3wip3gst12GStreamerEnvC1Ev = hidden unnamed_addr alias void (ptr), ptr @_ZN2cv4gapi3wip3gst12GStreamerEnvC2Ev
@_ZN2cv4gapi3wip3gst12GStreamerEnvD1Ev = hidden unnamed_addr alias void (ptr), ptr @_ZN2cv4gapi3wip3gst12GStreamerEnvD2Ev

declare void @_ZNSt8ios_base4InitC1Ev(ptr noundef nonnull align 1 dereferenceable(1)) unnamed_addr #0

; Function Attrs: nounwind
declare void @_ZNSt8ios_base4InitD1Ev(ptr noundef nonnull align 1 dereferenceable(1)) unnamed_addr #1

; Function Attrs: nofree nounwind
declare i32 @__cxa_atexit(ptr, ptr, ptr) local_unnamed_addr #2

; Function Attrs: mustprogress noreturn uwtable
define hidden noalias noundef nonnull align 1 dereferenceable(1) ptr @_ZN2cv4gapi3wip3gst12GStreamerEnv4initEv() local_unnamed_addr #3 align 2 personality ptr @__gxx_personality_v0 {
  %1 = alloca %"class.std::__cxx11::basic_string", align 8
  %2 = alloca %"class.std::allocator", align 1
  call void @_ZNSaIcEC1Ev(ptr noundef nonnull align 1 dereferenceable(1) %2) #7
  invoke void @_ZNSt7__cxx1112basic_stringIcSt11char_traitsIcESaIcEEC1EPKcRKS3_(ptr noundef nonnull align 8 dereferenceable(32) %1, ptr noundef nonnull @.str, ptr noundef nonnull align 1 dereferenceable(1) %2)
          to label %3 unwind label %5

3:                                                ; preds = %0
  invoke void @_ZN2cv5errorEiRKNSt7__cxx1112basic_stringIcSt11char_traitsIcESaIcEEEPKcS9_i(i32 noundef -2, ptr noundef nonnull align 8 dereferenceable(32) %1, ptr noundef nonnull @__func__._ZN2cv4gapi3wip3gst12GStreamerEnv4initEv, ptr noundef nonnull @.str.1, i32 noundef 72) #8
          to label %4 unwind label %7

4:                                                ; preds = %3
  unreachable

5:                                                ; preds = %0
  %6 = landingpad { ptr, i32 }
          cleanup
  br label %9

7:                                                ; preds = %3
  %8 = landingpad { ptr, i32 }
          cleanup
  call void @_ZNSt7__cxx1112basic_stringIcSt11char_traitsIcESaIcEED1Ev(ptr noundef nonnull align 8 dereferenceable(32) %1) #7
  br label %9

9:                                                ; preds = %7, %5
  %.pn = phi { ptr, i32 } [ %8, %7 ], [ %6, %5 ]
  call void @_ZNSaIcED1Ev(ptr noundef nonnull align 1 dereferenceable(1) %2) #7
  resume { ptr, i32 } %.pn
}

; Function Attrs: noreturn
declare void @_ZN2cv5errorEiRKNSt7__cxx1112basic_stringIcSt11char_traitsIcESaIcEEEPKcS9_i(i32 noundef, ptr noundef nonnull align 8 dereferenceable(32), ptr noundef, ptr noundef, i32 noundef) local_unnamed_addr #4

; Function Attrs: nounwind
declare void @_ZNSaIcEC1Ev(ptr noundef nonnull align 1 dereferenceable(1)) unnamed_addr #1

declare void @_ZNSt7__cxx1112basic_stringIcSt11char_traitsIcESaIcEEC1EPKcRKS3_(ptr noundef nonnull align 8 dereferenceable(32), ptr noundef, ptr noundef nonnull align 1 dereferenceable(1)) unnamed_addr #0

declare i32 @__gxx_personality_v0(...)

; Function Attrs: nounwind
declare void @_ZNSt7__cxx1112basic_stringIcSt11char_traitsIcESaIcEED1Ev(ptr noundef nonnull align 8 dereferenceable(32)) unnamed_addr #1

; Function Attrs: nounwind
declare void @_ZNSaIcED1Ev(ptr noundef nonnull align 1 dereferenceable(1)) unnamed_addr #1

; Function Attrs: mustprogress noreturn uwtable
define hidden void @_ZN2cv4gapi3wip3gst12GStreamerEnvC2Ev(ptr nocapture nonnull readnone align 1 %0) unnamed_addr #3 align 2 personality ptr @__gxx_personality_v0 {
  %2 = alloca %"class.std::__cxx11::basic_string", align 8
  %3 = alloca %"class.std::allocator", align 1
  call void @_ZNSaIcEC1Ev(ptr noundef nonnull align 1 dereferenceable(1) %3) #7
  invoke void @_ZNSt7__cxx1112basic_stringIcSt11char_traitsIcESaIcEEC1EPKcRKS3_(ptr noundef nonnull align 8 dereferenceable(32) %2, ptr noundef nonnull @.str, ptr noundef nonnull align 1 dereferenceable(1) %3)
          to label %4 unwind label %6

4:                                                ; preds = %1
  invoke void @_ZN2cv5errorEiRKNSt7__cxx1112basic_stringIcSt11char_traitsIcESaIcEEEPKcS9_i(i32 noundef -2, ptr noundef nonnull align 8 dereferenceable(32) %2, ptr noundef nonnull @__func__._ZN2cv4gapi3wip3gst12GStreamerEnvC2Ev, ptr noundef nonnull @.str.1, i32 noundef 77) #8
          to label %5 unwind label %8

5:                                                ; preds = %4
  unreachable

6:                                                ; preds = %1
  %7 = landingpad { ptr, i32 }
          cleanup
  br label %10

8:                                                ; preds = %4
  %9 = landingpad { ptr, i32 }
          cleanup
  call void @_ZNSt7__cxx1112basic_stringIcSt11char_traitsIcESaIcEED1Ev(ptr noundef nonnull align 8 dereferenceable(32) %2) #7
  br label %10

10:                                               ; preds = %8, %6
  %.pn = phi { ptr, i32 } [ %9, %8 ], [ %7, %6 ]
  call void @_ZNSaIcED1Ev(ptr noundef nonnull align 1 dereferenceable(1) %3) #7
  resume { ptr, i32 } %.pn
}

; Function Attrs: mustprogress nofree norecurse nosync nounwind willreturn memory(none) uwtable
define hidden void @_ZN2cv4gapi3wip3gst12GStreamerEnvD2Ev(ptr nocapture nonnull readnone align 1 %0) unnamed_addr #5 align 2 {
  ret void
}

; Function Attrs: uwtable
define internal void @_GLOBAL__sub_I_gstreamerenv.cpp() #6 section ".text.startup" {
  tail call void @_ZNSt8ios_base4InitC1Ev(ptr noundef nonnull align 1 dereferenceable(1) @_ZStL8__ioinit)
  %1 = tail call i32 @__cxa_atexit(ptr nonnull @_ZNSt8ios_base4InitD1Ev, ptr nonnull @_ZStL8__ioinit, ptr nonnull @__dso_handle) #7
  ret void
}


!llvm.module.flags = !{!0, !1, !2, !3}

!0 = !{i32 1, !"wchar_size", i32 4}
!1 = !{i32 8, !"PIC Level", i32 2}
!2 = !{i32 7, !"uwtable", i32 2}
!3 = !{i32 7, !"frame-pointer", i32 2}
